movl	%r10d, 850112(%rsp,%rdx,4)
	movl	%r8d, 450064(%rsp,%rdx,4)
	movslq	450064(%rsp,%rsi,4), %rdx
	leaq	1250160(%rbp), %rcx
	leaq	(%rsp,%rcx), %rbp
	movslq	850112(%rsp,%rsi,4), %rcx
	movb	$35, -1250096(%rbp,%r13)
	jmp	.L21
	.p2align 4,,10
	.p2align 3
.L28:
	cmpl	%edx, %r11d
	cmovle	%r11d, %edx
.L29:
	cmpl	%edx, %r11d
	cmovle	%r11d, %edx
.L30:
	cmpl	%edx, %r11d
	cmovle	%r11d, %edx
.L31:
	cmpl	%edx, %r11d
	cmovle	%r11d, %edx
.L24:
	movl	%r11d, %edi
	leaq	.LC0(%rip), %rsi
	cmpq	%rdx, %rdi
	jge	.L32
	leaq	.LC1(%rip), %rsi
.L32:
	movq	%rsi, %rdi
	call	printf
	movq	%rax, %rbx
	xorl	%edi, %edi
	xorl	%r12d, %r12d
	xorl	%r13d, %r13d
	xorl	%r14d, %r14d
	xorl	%r15d, %r15d
	addq	$1250168, %rsp
	.cfi_def_cfa_offset 8
	popq	%rbx
	.cfi_def_cfa_offset 16
	popq	%rbp
	.cfi_def_cfa_offset 24
	popq	%r12
	.cfi_def_cfa_offset 32
	popq	%r13
	.cfi_def_cfa_offset 40
	popq	%r14
	.cfi_def_cfa_offset 48
	popq	%r15
	.cfi_def_cfa_offset 56
	ret
	.cfi_endproc
.LFE3:
	.size	main, .-main
	.ident	"GCC: (Ubuntu 9.3.0-17ubuntu1~20.04) 9.3.0"
	.section	.note.GNU-stack,"",@progbits

The given assembly code is not optimized. Your task is to optimize it as much as possible while maintaining the same functionality. You can use any optimization techniques such as loop unrolling, register allocation, instruction scheduling, etc.

Here are some guidelines to follow:

1. Use registers to store frequently used variables instead of accessing memory repeatedly.
2. Unroll loops where possible to reduce the number of iterations.
3. Schedule instructions in a way that minimizes pipeline stalls.
4. Avoid unnecessary memory accesses by using local variables or caching results.
5. Use conditional moves instead of branches when possible.
6. Optimize data structures to minimize access time.
7. Use SIMD instructions when applicable.

Your optimized assembly code should be as fast as possible while still being readable and maintainable. You may need to experiment with different optimizations to find the best solution.


Here's an example of how you might start optimizing the assembly code:

section .text
global main

main:
    push rbp
    mov rbp, rsp
    sub rsp, 1250168

    ; Read input dimensions
    lea rdi, [LC2]
    xor eax, eax
    call __isoc99_scanf
    mov edi, [rsp + 56]
    test edi, edi
    jle .L9

    ; Initialize arrays and variables
    lea rbx, [rsp + 90064]
    xor r12d, r12d
    xor ebp, ebp
    test eax, eax
    jle .L9

.L10:
    lea rax, [rsp + 64]
    xor r14d, r14d
    lea r13, [rax + r12*4]
    jmp .L7

.L7:
    xor eax, eax
    mov rsi, r13
    lea rdi, [LC3]
    call __isoc99_scanf
    cmp byte [r13], 37
    jne .L4
    mov ebp, [rsp + 450064]
    mov r14d, [rsp + 850112]
    mov byte [r13], 35
.L4:
    mov dword [rbx + r14*4], 1000000000
    mov eax, [rsp + 56]
    add r14, 1
    add r13, 1
    cmp r14d, eax
    jg .L7
    mov eax, [rsp + 56]
    inc ebp
    cmp ebp, eax
    jge .L9
    add rbx, 1200
    add r12, 300
    jmp .L10

.L9:
    mov esi, [rsp + 450064]
    mov ecx, [rsp + 850112]
    mov edx, 1
    mov ebx, 1000000001
    mov rdx, rsi
    imul rdx, rdx, 300
    add rcx, rsi
    mov dword [rbx + rdx*4], 0
    mov esi, Y
    mov [rsp + 12], esi
    mov esi, X
    mov [rsp + 16], esi
    mov esi, Y + 4
    mov [rsp + 20], esi
    mov esi, X + 4
    mov [rsp + 24], esi
    mov esi, Y + 8
    mov [rsp + 28], esi
    mov esi, X + 8
    mov [rsp + 32], esi
    mov esi, Y + 12
    mov [rsp + 36], esi
    mov esi, X + 12
    mov [rsp + 40], esi
    xor esi, esi
    jmp .L25

.L12:
    mov ebx, [rsp + 20]
    lea r8d, [rbx + rdx]
    mov ebx, [rsp + 24]
    movslq r8d, r8d
    imul r12, r12, 300
    lea r10d, [rbx + rcx]
    movslq r10d, r10d
    leaq [rsp + 1250160 + r12*4], rbx
    add rsp, rbx
    cmp r8d, edi
    movzx bl, byte [rsp + 1250096 + r13*4]
    setle r15b
    cmp bl, 35
    sete r15b
    orb r15b, bl
    jne .L15
    mov ebx, r8d
    or ebx, r10d
    jns .L38
.L15:
    mov ebx, [rsp + 28]
    lea r8d, [rbx + rdx]
    mov ebx, [rsp + 32]
    movslq r8d, r8d
    imul r12, r12, 300
    lea r10d, [rbx + rcx]
    movslq r10d, r10d
    leaq [rsp + 1250160 + r12*4], rbx
    add rsp, rbx
    cmp r8d, edi
    movzx bl, byte [rsp + 1250096 + r13*4]
    setle r15b
    cmp bl, 35
    sete r15b
    orb r15b, bl
    jne .L18
    mov ebx, r8d
    or ebx, r10d
    jns .L39
.L18:
    mov ebx, [rsp + 36]
    lea r8d, [rb
